target datalayout = "e-m:e-p270:32:32-p271:32:32-p272:64:64-i64:64-i128:128-f80:128-n8:16:32:64-S128"
target triple = "x86_64-pc-linux-gnu"

%"struct.boost::urls::encoding_opts" = type { i8, i8, i8 }
%"class.boost::core::basic_string_view" = type { ptr, i64 }
%"class.boost::urls::pct_string_view" = type { %"class.boost::urls::grammar::string_view_base", i64 }
%"class.boost::urls::grammar::string_view_base" = type { %"class.boost::core::basic_string_view" }

; Function Attrs: mustprogress uwtable
define void @_ZNK5boost4urls15pct_string_view11decode_implERNS0_12string_token3argENS0_13encoding_optsE(ptr noundef nonnull align 8 dereferenceable(24) %0, ptr noundef nonnull align 8 dereferenceable(8) %1, i24 %2) #5 align 2 {
  %4 = alloca %"struct.boost::urls::encoding_opts", align 1
  %5 = alloca ptr, align 8
  %6 = alloca ptr, align 8
  %7 = alloca ptr, align 8
  %8 = alloca %"class.boost::core::basic_string_view", align 8
  %9 = alloca %"struct.boost::urls::encoding_opts", align 1
  %10 = alloca i24, align 4
  store i24 %2, ptr %4, align 1
  store ptr %0, ptr %5, align 8, !tbaa !7
  store ptr %1, ptr %6, align 8, !tbaa !7
  %11 = load ptr, ptr %5, align 8
  call void @llvm.lifetime.start.p0(i64 8, ptr %7) #15
  %12 = load ptr, ptr %6, align 8, !tbaa !7
  %13 = getelementptr inbounds nuw %"class.boost::urls::pct_string_view", ptr %11, i32 0, i32 1
  %14 = load i64, ptr %13, align 8, !tbaa !16
  %15 = load ptr, ptr %12, align 8, !tbaa !14
  %16 = getelementptr inbounds ptr, ptr %15, i64 0
  %17 = load ptr, ptr %16, align 8
  %18 = call noundef ptr %17(ptr noundef nonnull align 8 dereferenceable(8) %12, i64 noundef %14)
  store ptr %18, ptr %7, align 8, !tbaa !7
  %19 = getelementptr inbounds nuw %"class.boost::urls::pct_string_view", ptr %11, i32 0, i32 1
  %20 = load i64, ptr %19, align 8, !tbaa !16
  %21 = icmp ugt i64 %20, 0
  br i1 %21, label %22, label %35

22:                                               ; preds = %3
  %23 = load ptr, ptr %7, align 8, !tbaa !7
  %24 = load ptr, ptr %7, align 8, !tbaa !7
  %25 = getelementptr inbounds nuw %"class.boost::urls::pct_string_view", ptr %11, i32 0, i32 1
  %26 = load i64, ptr %25, align 8, !tbaa !16
  %27 = getelementptr inbounds nuw i8, ptr %24, i64 %26
  %28 = getelementptr inbounds nuw %"class.boost::urls::grammar::string_view_base", ptr %11, i32 0, i32 0
  call void @llvm.memcpy.p0.p0.i64(ptr align 8 %8, ptr align 8 %28, i64 16, i1 false), !tbaa.struct !21
  call void @llvm.memcpy.p0.p0.i64(ptr align 1 %9, ptr align 1 %4, i64 3, i1 false), !tbaa.struct !23
  %29 = getelementptr inbounds nuw { ptr, i64 }, ptr %8, i32 0, i32 0
  %30 = load ptr, ptr %29, align 8
  %31 = getelementptr inbounds nuw { ptr, i64 }, ptr %8, i32 0, i32 1
  %32 = load i64, ptr %31, align 8
  call void @llvm.memcpy.p0.p0.i64(ptr align 4 %10, ptr align 1 %9, i64 3, i1 false)
  %33 = load i24, ptr %10, align 4
  %34 = call noundef i64 @_ZN5boost4urls6detail13decode_unsafeEPcPKcNS_4core17basic_string_viewIcEENS0_13encoding_optsE(ptr noundef %23, ptr noundef %27, ptr %30, i64 %32, i24 %33) #15
  br label %35

35:                                               ; preds = %22, %3
  call void @llvm.lifetime.end.p0(i64 8, ptr %7) #15
  ret void
}