; Function Attrs: mustprogress uwtable
define void @_ZNK5boost4urls15pct_string_view11decode_implERNS0_12string_token3argENS0_13encoding_optsE(ptr nocapture noundef nonnull readonly align 8 dereferenceable(24) %0, ptr noundef nonnull align 8 dereferenceable(8) %1, i24 %2) local_unnamed_addr #1 align 2 {
  %4 = getelementptr inbounds nuw i8, ptr %0, i64 16
  %5 = load i64, ptr %4, align 8, !tbaa !3
  %6 = load ptr, ptr %1, align 8, !tbaa !11
  %7 = load ptr, ptr %6, align 8
  %8 = tail call noundef ptr %7(ptr noundef nonnull align 8 dereferenceable(8) %1, i64 noundef %5)
  %9 = load i64, ptr %4, align 8, !tbaa !3
  %.not = icmp eq i64 %9, 0
  br i1 %.not, label %13, label %10

10:                                               ; preds = %3
  %11 = getelementptr inbounds nuw i8, ptr %8, i64 %9
  %.sroa.01.0.copyload = load ptr, ptr %0, align 8, !tbaa !13
  %.sroa.2.0..sroa_idx = getelementptr inbounds i8, ptr %0, i64 8
  %.sroa.2.0.copyload = load i64, ptr %.sroa.2.0..sroa_idx, align 8, !tbaa !14
  %12 = tail call noundef i64 @_ZN5boost4urls6detail13decode_unsafeEPcPKcNS_4core17basic_string_viewIcEENS0_13encoding_optsE(ptr noundef %8, ptr noundef nonnull %11, ptr %.sroa.01.0.copyload, i64 %.sroa.2.0.copyload, i24 %2) #16
  br label %13

13:                                               ; preds = %10, %3
  ret void
}